Certificate:
    Data:
        Version: 3 (0x2)
        Serial Number: 1 (0x1)
    Signature Algorithm: sha1WithRSAEncryption
        Issuer: DC=org, DC=simple, O=Simple Inc, OU=Simple Signing CA, CN=Simple Signing CA
        Validity
            Not Before: Apr 25 00:46:46 2018 GMT
            Not After : Apr 24 00:46:46 2020 GMT
        Subject: DC=org, DC=simple, O=Simple Inc, CN=Fred Flintstone
        Subject Public Key Info:
            Public Key Algorithm: rsaEncryption
                Public-Key: (2048 bit)
                Modulus:
                    00:ad:f9:ec:ff:55:27:6c:f1:40:fe:9f:6a:d2:4d:
                    97:3b:a0:44:89:b5:4a:48:a5:ed:ff:2a:6f:c7:f3:
                    51:07:16:4d:8c:63:d4:f7:eb:3d:47:84:8a:9b:9e:
                    4f:b0:77:af:67:64:83:67:98:32:10:ed:13:a4:16:
                    14:76:5b:28:a7:d6:da:b7:da:f9:9f:cb:9b:88:fd:
                    f7:b6:bd:aa:a7:f5:d6:75:15:cb:51:f5:b3:ce:4e:
                    4c:f4:93:57:67:a9:cf:03:6e:55:20:05:2b:9e:45:
                    ae:2a:fd:59:5c:ec:f2:2d:c5:b9:a7:a3:73:4b:12:
                    9e:f8:af:74:8a:e1:21:29:b9:ee:ff:2c:60:8c:eb:
                    3f:c9:ed:79:4d:b1:64:47:bb:86:9c:c0:b0:1b:df:
                    99:9d:82:ef:81:ac:fe:28:7c:7e:c0:2d:b7:cc:78:
                    b0:85:06:5e:e3:cd:46:81:57:11:dc:ec:fb:8c:b5:
                    50:84:40:53:f0:9d:55:f1:bb:1f:11:8c:27:86:be:
                    88:ec:6f:11:94:90:0d:0e:ce:93:50:81:4c:5b:fa:
                    cc:c7:55:bf:c2:62:30:d4:0e:3f:bb:7c:37:90:c1:
                    1d:53:c9:25:27:1e:1d:0d:8d:f6:4a:d3:cb:b6:6d:
                    43:63:7a:d6:2e:23:ba:9d:54:17:7f:7a:a3:0e:85:
                    8a:35
                Exponent: 65537 (0x10001)
        X509v3 extensions:
            X509v3 Key Usage: critical
                Digital Signature, Key Encipherment
            X509v3 Basic Constraints: 
                CA:FALSE
            X509v3 Extended Key Usage: 
                E-mail Protection, TLS Web Client Authentication
            X509v3 Subject Key Identifier: 
                45:0F:90:B2:1B:77:6F:E2:41:20:7B:69:D4:A0:93:CD:6F:3E:D7:BE
            X509v3 Authority Key Identifier: 
                keyid:C9:6F:4C:5F:1D:56:E1:8A:59:67:30:B4:0D:87:E0:0D:BB:F8:42:20

            X509v3 Subject Alternative Name: 
                email:fred@simple.org
    Signature Algorithm: sha1WithRSAEncryption
         a2:a1:a4:a6:b9:c2:d6:85:0d:6c:36:96:fd:d4:c2:f6:23:65:
         7a:96:85:43:79:ed:8f:f5:02:18:96:f0:c1:bf:37:3e:52:74:
         bd:c7:61:8d:5c:9c:07:49:e1:f0:39:8a:2f:7b:91:41:0c:0f:
         1c:04:6d:8f:ac:83:cd:86:e3:9b:64:f8:da:38:b6:ee:e9:d5:
         fc:76:96:19:1c:86:a4:c1:88:7e:8b:52:ce:fb:40:1d:24:a9:
         f1:ac:b7:04:c1:9a:29:74:85:83:c5:48:84:13:3c:0c:b8:c7:
         83:60:c2:a9:39:28:22:8f:ec:69:fe:b3:88:5f:ad:fa:ac:fa:
         27:08:fe:71:3a:d5:0b:73:1c:a1:ba:ca:de:5b:2a:a8:5f:a0:
         7b:c0:5d:97:f4:0d:fe:5e:ce:65:c5:37:b7:5a:77:9c:a5:d7:
         7c:ae:13:0d:92:8d:d8:56:bb:26:34:e1:83:07:5f:5f:eb:9b:
         e5:35:05:12:7c:54:74:30:02:c1:0d:4c:eb:8f:bd:ef:24:5f:
         08:92:ff:11:e9:c5:d4:e1:ec:17:7e:08:af:5b:55:e8:51:82:
         6b:f4:57:5c:d1:5e:75:6a:9d:e3:a4:d6:c7:22:c9:08:d7:b4:
         09:a5:11:6b:40:6e:54:1a:df:98:24:76:b0:21:ea:43:ec:c7:
         df:dc:83:02
-----BEGIN CERTIFICATE-----
MIID6zCCAtOgAwIBAgIBATANBgkqhkiG9w0BAQUFADB6MRMwEQYKCZImiZPyLGQB
GRYDb3JnMRYwFAYKCZImiZPyLGQBGRYGc2ltcGxlMRMwEQYDVQQKDApTaW1wbGUg
SW5jMRowGAYDVQQLDBFTaW1wbGUgU2lnbmluZyBDQTEaMBgGA1UEAwwRU2ltcGxl
IFNpZ25pbmcgQ0EwHhcNMTgwNDI1MDA0NjQ2WhcNMjAwNDI0MDA0NjQ2WjBcMRMw
EQYKCZImiZPyLGQBGRYDb3JnMRYwFAYKCZImiZPyLGQBGRYGc2ltcGxlMRMwEQYD
VQQKDApTaW1wbGUgSW5jMRgwFgYDVQQDDA9GcmVkIEZsaW50c3RvbmUwggEiMA0G
CSqGSIb3DQEBAQUAA4IBDwAwggEKAoIBAQCt+ez/VSds8UD+n2rSTZc7oESJtUpI
pe3/Km/H81EHFk2MY9T36z1HhIqbnk+wd69nZINnmDIQ7ROkFhR2Wyin1tq32vmf
y5uI/fe2vaqn9dZ1FctR9bPOTkz0k1dnqc8DblUgBSueRa4q/Vlc7PItxbmno3NL
Ep74r3SK4SEpue7/LGCM6z/J7XlNsWRHu4acwLAb35mdgu+BrP4ofH7ALbfMeLCF
Bl7jzUaBVxHc7PuMtVCEQFPwnVXxux8RjCeGvojsbxGUkA0OzpNQgUxb+szHVb/C
YjDUDj+7fDeQwR1TySUnHh0NjfZK08u2bUNjetYuI7qdVBd/eqMOhYo1AgMBAAGj
gZkwgZYwDgYDVR0PAQH/BAQDAgWgMAkGA1UdEwQCMAAwHQYDVR0lBBYwFAYIKwYB
BQUHAwQGCCsGAQUFBwMCMB0GA1UdDgQWBBRFD5CyG3dv4kEge2nUoJPNbz7XvjAf
BgNVHSMEGDAWgBTJb0xfHVbhillnMLQNh+ANu/hCIDAaBgNVHREEEzARgQ9mcmVk
QHNpbXBsZS5vcmcwDQYJKoZIhvcNAQEFBQADggEBAKKhpKa5wtaFDWw2lv3UwvYj
ZXqWhUN57Y/1AhiW8MG/Nz5SdL3HYY1cnAdJ4fA5ii97kUEMDxwEbY+sg82G45tk
+No4tu7p1fx2lhkchqTBiH6LUs77QB0kqfGstwTBmil0hYPFSIQTPAy4x4Ngwqk5
KCKP7Gn+s4hfrfqs+icI/nE61QtzHKG6yt5bKqhfoHvAXZf0Df5ezmXFN7dad5yl
13yuEw2SjdhWuyY04YMHX1/rm+U1BRJ8VHQwAsENTOuPve8kXwiS/xHpxdTh7Bd+
CK9bVehRgmv0V1zRXnVqneOk1sciyQjXtAmlEWtAblQa35gkdrAh6kPsx9/cgwI=
-----END CERTIFICATE-----
