Certificate:
    Data:
        Version: 3 (0x2)
        Serial Number: 2 (0x2)
    Signature Algorithm: sha1WithRSAEncryption
        Issuer: DC=org, DC=simple, O=Simple Inc, OU=Simple Signing CA, CN=Simple Signing CA
        Validity
            Not Before: Apr 25 00:49:47 2018 GMT
            Not After : Apr 24 00:49:47 2020 GMT
        Subject: DC=org, DC=simple, O=Simple Inc, CN=www.simple.org
        Subject Public Key Info:
            Public Key Algorithm: rsaEncryption
                Public-Key: (2048 bit)
                Modulus:
                    00:c8:1b:14:d8:5c:b2:0e:31:2d:0c:d8:e8:d6:5d:
                    31:11:a1:55:31:35:0d:d1:38:a6:7d:9c:76:88:28:
                    08:87:73:57:9c:bf:00:70:0c:79:ef:e9:66:65:cd:
                    93:e9:13:62:12:17:52:36:d7:39:24:32:7c:95:26:
                    33:22:04:2f:72:44:17:37:20:20:3b:88:bf:c3:da:
                    f0:7c:18:f9:6b:1f:36:a2:d9:e2:23:62:3b:ee:21:
                    cf:5b:3e:bf:1c:4b:aa:47:a3:a2:46:25:a1:df:c0:
                    65:61:3d:c3:eb:24:9c:dd:be:52:b2:8e:e3:ef:b6:
                    5e:3f:18:61:10:69:f0:7a:6f:f5:22:87:ce:17:3b:
                    af:5d:71:a6:a6:27:d4:64:6c:a0:8e:87:25:52:7c:
                    7f:e5:a8:84:e1:cb:f7:88:6e:a0:8c:4a:67:aa:91:
                    64:fa:b1:73:08:1a:0a:1d:b0:38:c4:18:e3:7e:af:
                    f6:d1:15:8d:dc:2c:54:2f:71:09:02:52:66:51:99:
                    3f:98:37:4b:b0:a9:20:71:53:7f:9b:b8:ae:bd:c0:
                    04:fc:ed:15:3a:2d:59:af:54:2b:83:3f:0c:fc:7f:
                    f3:03:24:79:25:9d:e1:49:af:12:70:45:0e:a6:f9:
                    d7:63:95:32:96:94:18:16:22:92:71:87:c9:95:a0:
                    f9:ab
                Exponent: 65537 (0x10001)
        X509v3 extensions:
            X509v3 Key Usage: critical
                Digital Signature, Key Encipherment
            X509v3 Basic Constraints: 
                CA:FALSE
            X509v3 Extended Key Usage: 
                TLS Web Server Authentication, TLS Web Client Authentication
            X509v3 Subject Key Identifier: 
                A7:30:A6:E6:3D:C6:91:2C:39:B5:20:1C:43:91:B3:FA:7B:8B:1F:90
            X509v3 Authority Key Identifier: 
                keyid:C9:6F:4C:5F:1D:56:E1:8A:59:67:30:B4:0D:87:E0:0D:BB:F8:42:20

            X509v3 Subject Alternative Name: 
                DNS:www.simple.org
    Signature Algorithm: sha1WithRSAEncryption
         79:23:63:96:0f:35:7d:b7:c3:b5:b4:01:ca:a2:9f:f8:6d:2f:
         fe:2b:ee:4d:0b:46:ba:80:a6:ca:94:c4:9a:f6:8e:93:d1:06:
         04:83:99:f2:b8:90:38:be:0e:5c:a2:3f:9a:05:f5:32:7b:b7:
         0d:f9:65:ac:b2:83:63:37:ca:62:55:84:97:ff:6a:da:5d:0e:
         ef:8b:70:4f:15:b5:24:0b:24:fe:7e:93:a9:a5:9e:22:25:1e:
         ae:f5:2b:03:49:5e:a0:62:de:9d:93:85:05:3b:df:ab:52:ba:
         ea:46:3c:ec:5f:34:ab:12:07:95:af:13:e8:66:a1:74:e0:40:
         e1:b8:6b:04:35:88:1d:c4:ae:b1:e3:08:34:a2:2e:17:75:af:
         c7:e2:e1:a7:83:d4:50:0f:c1:cc:cc:26:00:b0:bb:9d:9b:80:
         8c:3d:19:ea:3d:86:96:17:64:7f:f1:b9:ea:75:a9:50:11:82:
         4f:5b:d3:c4:19:7d:58:67:b8:10:fe:7d:35:8c:4e:20:7d:6e:
         98:e2:dd:6f:0e:55:10:44:75:e3:dc:20:2e:c2:40:71:f0:eb:
         c5:cb:64:ff:11:7a:1c:1d:1a:ed:b4:f9:e1:4d:40:6f:cf:78:
         07:d7:9b:eb:68:60:f7:63:6f:2a:83:82:03:3b:4a:b1:2e:25:
         93:75:ea:f9
-----BEGIN CERTIFICATE-----
MIID6TCCAtGgAwIBAgIBAjANBgkqhkiG9w0BAQUFADB6MRMwEQYKCZImiZPyLGQB
GRYDb3JnMRYwFAYKCZImiZPyLGQBGRYGc2ltcGxlMRMwEQYDVQQKDApTaW1wbGUg
SW5jMRowGAYDVQQLDBFTaW1wbGUgU2lnbmluZyBDQTEaMBgGA1UEAwwRU2ltcGxl
IFNpZ25pbmcgQ0EwHhcNMTgwNDI1MDA0OTQ3WhcNMjAwNDI0MDA0OTQ3WjBbMRMw
EQYKCZImiZPyLGQBGRYDb3JnMRYwFAYKCZImiZPyLGQBGRYGc2ltcGxlMRMwEQYD
VQQKDApTaW1wbGUgSW5jMRcwFQYDVQQDDA53d3cuc2ltcGxlLm9yZzCCASIwDQYJ
KoZIhvcNAQEBBQADggEPADCCAQoCggEBAMgbFNhcsg4xLQzY6NZdMRGhVTE1DdE4
pn2cdogoCIdzV5y/AHAMee/pZmXNk+kTYhIXUjbXOSQyfJUmMyIEL3JEFzcgIDuI
v8Pa8HwY+WsfNqLZ4iNiO+4hz1s+vxxLqkejokYlod/AZWE9w+sknN2+UrKO4++2
Xj8YYRBp8Hpv9SKHzhc7r11xpqYn1GRsoI6HJVJ8f+WohOHL94huoIxKZ6qRZPqx
cwgaCh2wOMQY436v9tEVjdwsVC9xCQJSZlGZP5g3S7CpIHFTf5u4rr3ABPztFTot
Wa9UK4M/DPx/8wMkeSWd4UmvEnBFDqb512OVMpaUGBYiknGHyZWg+asCAwEAAaOB
mDCBlTAOBgNVHQ8BAf8EBAMCBaAwCQYDVR0TBAIwADAdBgNVHSUEFjAUBggrBgEF
BQcDAQYIKwYBBQUHAwIwHQYDVR0OBBYEFKcwpuY9xpEsObUgHEORs/p7ix+QMB8G
A1UdIwQYMBaAFMlvTF8dVuGKWWcwtA2H4A27+EIgMBkGA1UdEQQSMBCCDnd3dy5z
aW1wbGUub3JnMA0GCSqGSIb3DQEBBQUAA4IBAQB5I2OWDzV9t8O1tAHKop/4bS/+
K+5NC0a6gKbKlMSa9o6T0QYEg5nyuJA4vg5coj+aBfUye7cN+WWssoNjN8piVYSX
/2raXQ7vi3BPFbUkCyT+fpOppZ4iJR6u9SsDSV6gYt6dk4UFO9+rUrrqRjzsXzSr
EgeVrxPoZqF04EDhuGsENYgdxK6x4wg0oi4Xda/H4uGng9RQD8HMzCYAsLudm4CM
PRnqPYaWF2R/8bnqdalQEYJPW9PEGX1YZ7gQ/n01jE4gfW6Y4t1vDlUQRHXj3CAu
wkBx8OvFy2T/EXocHRrttPnhTUBvz3gH15vraGD3Y28qg4IDO0qxLiWTder5
-----END CERTIFICATE-----
