Certificate:
    Data:
        Version: 3 (0x2)
        Serial Number: 1 (0x1)
    Signature Algorithm: sha1WithRSAEncryption
        Issuer: DC=org, DC=simple, O=Simple Inc, OU=Simple Root CA, CN=Simple Root CA
        Validity
            Not Before: Apr 25 00:26:45 2018 GMT
            Not After : Apr 24 00:26:45 2028 GMT
        Subject: DC=org, DC=simple, O=Simple Inc, OU=Simple Root CA, CN=Simple Root CA
        Subject Public Key Info:
            Public Key Algorithm: rsaEncryption
                Public-Key: (2048 bit)
                Modulus:
                    00:cc:a4:ee:9b:a6:aa:37:af:b1:62:c8:64:e2:6a:
                    07:5a:1b:f9:fe:2b:e0:ff:37:51:06:df:71:3c:f8:
                    8c:8b:32:08:b8:ba:fb:c5:d4:8c:10:c6:16:05:77:
                    fa:a4:85:8d:a0:f3:d6:0e:58:0a:a5:23:8e:2e:91:
                    57:f0:44:47:ec:c8:41:31:4c:5b:f5:da:cd:c0:e7:
                    1e:c1:b5:b8:c8:6a:35:2c:5d:d5:80:90:47:51:fb:
                    e0:e0:3d:9e:a5:46:1d:00:e6:a1:15:78:ce:75:00:
                    f7:b2:ff:ff:a6:c3:f5:2d:7a:ab:4c:9f:22:d7:97:
                    1b:fc:fe:23:f1:9f:fd:71:7a:78:53:2b:ed:b0:91:
                    a7:8e:a4:51:2e:7b:4a:d4:a8:5d:97:4d:b8:bf:2e:
                    46:ca:0e:50:94:eb:ac:55:67:94:ec:2b:39:45:35:
                    af:40:d5:c8:a4:c7:a5:07:be:ca:db:8b:34:0c:71:
                    76:94:7c:68:ca:47:cf:0b:2c:a4:fa:ec:3c:60:6e:
                    f4:51:71:aa:eb:c8:d6:62:4f:7f:f7:13:9b:0b:9f:
                    00:ba:b6:22:cf:e1:44:e9:1b:4b:57:72:1d:b6:cb:
                    52:18:8a:d8:2d:41:93:e3:84:68:dc:ae:42:f0:b5:
                    76:6e:94:f2:ba:1a:a2:4b:e1:02:fc:ab:6b:8d:e5:
                    c2:0d
                Exponent: 65537 (0x10001)
        X509v3 extensions:
            X509v3 Key Usage: critical
                Certificate Sign, CRL Sign
            X509v3 Basic Constraints: critical
                CA:TRUE
            X509v3 Subject Key Identifier: 
                63:8F:01:C6:A7:9D:64:02:37:9C:11:78:77:D5:E5:7F:FE:4A:D6:BE
            X509v3 Authority Key Identifier: 
                keyid:63:8F:01:C6:A7:9D:64:02:37:9C:11:78:77:D5:E5:7F:FE:4A:D6:BE

    Signature Algorithm: sha1WithRSAEncryption
         43:fa:af:6f:10:35:6e:1c:b4:c5:3e:90:8c:ea:cd:e4:55:bd:
         32:d1:d1:b2:1e:7c:cc:a4:23:5c:21:3e:37:08:06:a8:49:c6:
         30:08:f0:2d:a5:9e:29:54:5b:e4:6a:ae:c9:6c:68:4b:7f:62:
         ec:25:d2:86:ca:b8:4f:c1:f1:79:56:c0:e5:60:31:7e:2e:bf:
         23:9d:94:1b:62:95:a6:e8:e5:dc:84:f7:51:63:ef:9e:a0:01:
         d5:c4:ca:98:3f:3b:91:9c:e2:12:c6:03:78:34:44:86:58:59:
         f3:e5:e6:85:9b:59:88:b3:11:b3:bf:c7:e4:4d:56:d9:de:6a:
         aa:d7:e4:83:9e:b2:21:08:10:d8:11:ac:31:c3:4b:0d:e2:6a:
         9a:62:5e:8a:46:16:27:76:3e:26:9e:b5:7e:4e:20:22:e9:c5:
         e1:46:21:a2:9e:73:a5:82:e9:d6:43:8c:fe:5e:b5:dc:a5:99:
         1a:04:4e:7f:03:6e:f1:9d:08:30:cb:fc:28:4a:a9:69:58:27:
         25:8e:16:c9:b5:af:f7:04:e6:1e:11:70:c3:14:20:cc:84:ed:
         74:4a:62:34:c9:56:f8:d0:d0:ed:cc:81:2e:8a:47:2a:35:28:
         d1:24:8f:0a:cf:00:ad:a2:fd:a1:44:e1:1f:56:ee:0d:d6:93:
         f5:34:57:39
-----BEGIN CERTIFICATE-----
MIIDxjCCAq6gAwIBAgIBATANBgkqhkiG9w0BAQUFADB0MRMwEQYKCZImiZPyLGQB
GRYDb3JnMRYwFAYKCZImiZPyLGQBGRYGc2ltcGxlMRMwEQYDVQQKDApTaW1wbGUg
SW5jMRcwFQYDVQQLDA5TaW1wbGUgUm9vdCBDQTEXMBUGA1UEAwwOU2ltcGxlIFJv
b3QgQ0EwHhcNMTgwNDI1MDAyNjQ1WhcNMjgwNDI0MDAyNjQ1WjB0MRMwEQYKCZIm
iZPyLGQBGRYDb3JnMRYwFAYKCZImiZPyLGQBGRYGc2ltcGxlMRMwEQYDVQQKDApT
aW1wbGUgSW5jMRcwFQYDVQQLDA5TaW1wbGUgUm9vdCBDQTEXMBUGA1UEAwwOU2lt
cGxlIFJvb3QgQ0EwggEiMA0GCSqGSIb3DQEBAQUAA4IBDwAwggEKAoIBAQDMpO6b
pqo3r7FiyGTiagdaG/n+K+D/N1EG33E8+IyLMgi4uvvF1IwQxhYFd/qkhY2g89YO
WAqlI44ukVfwREfsyEExTFv12s3A5x7BtbjIajUsXdWAkEdR++DgPZ6lRh0A5qEV
eM51APey//+mw/UteqtMnyLXlxv8/iPxn/1xenhTK+2wkaeOpFEue0rUqF2XTbi/
LkbKDlCU66xVZ5TsKzlFNa9A1cikx6UHvsrbizQMcXaUfGjKR88LLKT67DxgbvRR
carryNZiT3/3E5sLnwC6tiLP4UTpG0tXch22y1IYitgtQZPjhGjcrkLwtXZulPK6
GqJL4QL8q2uN5cINAgMBAAGjYzBhMA4GA1UdDwEB/wQEAwIBBjAPBgNVHRMBAf8E
BTADAQH/MB0GA1UdDgQWBBRjjwHGp51kAjecEXh31eV//krWvjAfBgNVHSMEGDAW
gBRjjwHGp51kAjecEXh31eV//krWvjANBgkqhkiG9w0BAQUFAAOCAQEAQ/qvbxA1
bhy0xT6QjOrN5FW9MtHRsh58zKQjXCE+NwgGqEnGMAjwLaWeKVRb5GquyWxoS39i
7CXShsq4T8HxeVbA5WAxfi6/I52UG2KVpujl3IT3UWPvnqAB1cTKmD87kZziEsYD
eDREhlhZ8+XmhZtZiLMRs7/H5E1W2d5qqtfkg56yIQgQ2BGsMcNLDeJqmmJeikYW
J3Y+Jp61fk4gIunF4UYhop5zpYLp1kOM/l613KWZGgROfwNu8Z0IMMv8KEqpaVgn
JY4WybWv9wTmHhFwwxQgzITtdEpiNMlW+NDQ7cyBLopHKjUo0SSPCs8AraL9oUTh
H1buDdaT9TRXOQ==
-----END CERTIFICATE-----
